target datalayout = "e-m:e-p270:32:32-p271:32:32-p272:64:64-i64:64-i128:128-f80:128-n8:16:32:64-S128"
target triple = "x86_64-pc-linux-gnu"

%struct.AVCodecContext = type { ptr, i32, i32, ptr, i32, i32, ptr, ptr, ptr, i64, i32, i32, ptr, i32, %struct.AVRational, %struct.AVRational, %struct.AVRational, i32, i32, i32, i32, i32, %struct.AVRational, i32, i32, i32, i32, i32, i32, i32, i32, i32, i32, i32, ptr, ptr, i32, float, float, float, float, float, float, float, float, float, i32, i32, i32, i32, i32, i32, i32, i32, i32, i32, i32, i32, ptr, ptr, ptr, i32, i32, i32, i32, i32, i32, i32, i32, i32, i32, %struct.AVChannelLayout, i32, i32, i32, i32, i32, i32, i32, i32, ptr, i32, i32, i32, float, float, i32, i32, i32, i32, i32, ptr, i64, i64, float, float, i32, i32, ptr, ptr, i32, i32, i32, i32, i32, ptr, ptr, ptr, ptr, i32, i32, [8 x i64], i32, i32, i32, i32, i32, i32, i32, ptr, ptr, i32, i32, i32, i32, i32, i32, i32, i32, i32, i32, ptr, ptr, i32, i32, ptr, ptr, ptr, ptr, i32, i32, i64, i32, i32, i64, ptr, i64, ptr, i32, ptr, i32 }
%struct.AVRational = type { i32, i32 }
%struct.AVChannelLayout = type { i32, i32, %union.anon.0, ptr }
%union.anon.0 = type { i64 }
%struct.ShortenContext = type { ptr, %struct.GetBitContext, i32, i32, i32, [8 x ptr], [8 x ptr], [8 x ptr], ptr, ptr, i32, i32, i32, i32, [16384 x i8], i32, i32, i32, i32, i32, i32, i32, i32, i32, i32, i32, i32, %struct.BswapDSPContext }
%struct.GetBitContext = type { ptr, ptr, i32, i32, i32 }
%struct.BswapDSPContext = type { ptr, ptr }

; Function Attrs: cold nounwind optsize uwtable
define internal i32 @shorten_decode_close(ptr noundef %0) #0 {
  %2 = alloca ptr, align 8
  %3 = alloca ptr, align 8
  %4 = alloca i32, align 4
  store ptr %0, ptr %2, align 8, !tbaa !4
  call void @llvm.lifetime.start.p0(i64 8, ptr %3) #11
  %5 = load ptr, ptr %2, align 8, !tbaa !4
  %6 = getelementptr inbounds nuw %struct.AVCodecContext, ptr %5, i32 0, i32 6
  %7 = load ptr, ptr %6, align 8, !tbaa !9
  store ptr %7, ptr %3, align 8, !tbaa !29
  call void @llvm.lifetime.start.p0(i64 4, ptr %4) #11
  store i32 0, ptr %4, align 4, !tbaa !44
  br label %8

8:                                                ; preds = %30, %1
  %9 = load i32, ptr %4, align 4, !tbaa !44
  %10 = load ptr, ptr %3, align 8, !tbaa !29
  %11 = getelementptr inbounds nuw %struct.ShortenContext, ptr %10, i32 0, i32 4
  %12 = load i32, ptr %11, align 8, !tbaa !54
  %13 = icmp ult i32 %9, %12
  br i1 %13, label %14, label %33

14:                                               ; preds = %8
  %15 = load ptr, ptr %3, align 8, !tbaa !29
  %16 = getelementptr inbounds nuw %struct.ShortenContext, ptr %15, i32 0, i32 5
  %17 = load i32, ptr %4, align 4, !tbaa !44
  %18 = sext i32 %17 to i64
  %19 = getelementptr inbounds [8 x ptr], ptr %16, i64 0, i64 %18
  store ptr null, ptr %19, align 8, !tbaa !37
  %20 = load ptr, ptr %3, align 8, !tbaa !29
  %21 = getelementptr inbounds nuw %struct.ShortenContext, ptr %20, i32 0, i32 6
  %22 = load i32, ptr %4, align 4, !tbaa !44
  %23 = sext i32 %22 to i64
  %24 = getelementptr inbounds [8 x ptr], ptr %21, i64 0, i64 %23
  call void @av_freep(ptr noundef %24)
  %25 = load ptr, ptr %3, align 8, !tbaa !29
  %26 = getelementptr inbounds nuw %struct.ShortenContext, ptr %25, i32 0, i32 7
  %27 = load i32, ptr %4, align 4, !tbaa !44
  %28 = sext i32 %27 to i64
  %29 = getelementptr inbounds [8 x ptr], ptr %26, i64 0, i64 %28
  call void @av_freep(ptr noundef %29)
  br label %30

30:                                               ; preds = %14
  %31 = load i32, ptr %4, align 4, !tbaa !44
  %32 = add nsw i32 %31, 1
  store i32 %32, ptr %4, align 4, !tbaa !44
  br label %8, !llvm.loop !85

33:                                               ; preds = %8
  %34 = load ptr, ptr %3, align 8, !tbaa !29
  %35 = getelementptr inbounds nuw %struct.ShortenContext, ptr %34, i32 0, i32 9
  call void @av_freep(ptr noundef %35)
  %36 = load ptr, ptr %3, align 8, !tbaa !29
  %37 = getelementptr inbounds nuw %struct.ShortenContext, ptr %36, i32 0, i32 8
  call void @av_freep(ptr noundef %37)
  call void @llvm.lifetime.end.p0(i64 4, ptr %4) #11
  call void @llvm.lifetime.end.p0(i64 8, ptr %3) #11
  ret i32 0
}