; Function Attrs: cold nounwind optsize uwtable
define internal noundef i32 @shorten_decode_close(ptr noundef readonly captures(none) %0) #0 {
  %2 = getelementptr inbounds nuw i8, ptr %0, i64 32
  %3 = load ptr, ptr %2, align 8, !tbaa !4
  %4 = getelementptr inbounds nuw i8, ptr %3, i64 48
  %5 = load i32, ptr %4, align 8, !tbaa !54
  %.not = icmp eq i32 %5, 0
  br i1 %.not, label %._crit_edge, label %.lr.ph

.lr.ph:                                           ; preds = %1
  %6 = getelementptr inbounds nuw i8, ptr %3, i64 56
  %7 = getelementptr inbounds nuw i8, ptr %3, i64 120
  %8 = getelementptr inbounds nuw i8, ptr %3, i64 184
  br label %9

9:                                                ; preds = %.lr.ph, %9
  %indvars.iv = phi i64 [ 0, %.lr.ph ], [ %indvars.iv.next, %9 ]
  %10 = getelementptr inbounds nuw [8 x ptr], ptr %6, i64 0, i64 %indvars.iv
  store ptr null, ptr %10, align 8, !tbaa !65
  %11 = getelementptr inbounds nuw [8 x ptr], ptr %7, i64 0, i64 %indvars.iv
  tail call void @av_freep(ptr noundef nonnull %11) #8
  %12 = getelementptr inbounds nuw [8 x ptr], ptr %8, i64 0, i64 %indvars.iv
  tail call void @av_freep(ptr noundef nonnull %12) #8
  %indvars.iv.next = add nuw nsw i64 %indvars.iv, 1
  %13 = load i32, ptr %4, align 8, !tbaa !54
  %14 = zext i32 %13 to i64
  %15 = icmp samesign ult i64 %indvars.iv.next, %14
  br i1 %15, label %9, label %._crit_edge, !llvm.loop !102

._crit_edge:                                      ; preds = %9, %1
  %16 = getelementptr inbounds nuw i8, ptr %3, i64 256
  tail call void @av_freep(ptr noundef nonnull %16) #8
  %17 = getelementptr inbounds nuw i8, ptr %3, i64 248
  tail call void @av_freep(ptr noundef nonnull %17) #8
  ret i32 0
}